; Function Attrs: null_pointer_is_valid sspstrong uwtable
define internal i32 @dissect_ProtocolExtensionFieldExtensionValue(ptr noundef %0, ptr noundef %1, ptr noundef %2, ptr readnone captures(none) %3) #0 {
  %5 = alloca %struct._ngap_ctx_t, align 4
  call void @llvm.lifetime.start.p0(i64 16, ptr nonnull %5) #12
  %6 = getelementptr inbounds nuw i8, ptr %1, i64 408
  %7 = load ptr, ptr %6, align 8
  %8 = load i32, ptr @proto_ngap, align 4
  %9 = tail call ptr @p_get_proto_data(ptr noundef %7, ptr noundef %1, i32 noundef %8, i32 noundef 0)
  %.not.i = icmp eq ptr %9, null
  br i1 %.not.i, label %10, label %ngap_get_private_data.exit

10:                                               ; preds = %4
  %11 = load ptr, ptr %6, align 8
  %12 = tail call noalias dereferenceable_or_null(72) ptr @wmem_alloc0(ptr noundef %11, i64 noundef 72) #13
  %13 = getelementptr inbounds nuw i8, ptr %12, i64 24
  store i32 -1, ptr %13, align 8
  %14 = getelementptr inbounds nuw i8, ptr %12, i64 56
  store i8 -1, ptr %14, align 8
  %15 = load ptr, ptr %6, align 8
  %16 = load i32, ptr @proto_ngap, align 4
  tail call void @p_add_proto_data(ptr noundef %15, ptr noundef %1, i32 noundef %16, i32 noundef 0, ptr noundef %12)
  br label %ngap_get_private_data.exit

ngap_get_private_data.exit:                       ; preds = %4, %10
  %.0.i = phi ptr [ %9, %4 ], [ %12, %10 ]
  %17 = getelementptr inbounds nuw i8, ptr %.0.i, i64 20
  %18 = load i32, ptr %17, align 4
  store i32 %18, ptr %5, align 4
  %19 = getelementptr inbounds nuw i8, ptr %.0.i, i64 8
  %20 = load i32, ptr %19, align 8
  %21 = getelementptr inbounds nuw i8, ptr %5, i64 4
  store i32 %20, ptr %21, align 4
  %22 = getelementptr inbounds nuw i8, ptr %.0.i, i64 12
  %23 = load i32, ptr %22, align 4
  %24 = getelementptr inbounds nuw i8, ptr %5, i64 8
  store i32 %23, ptr %24, align 4
  %25 = getelementptr inbounds nuw i8, ptr %.0.i, i64 16
  %26 = load i32, ptr %25, align 8
  %27 = getelementptr inbounds nuw i8, ptr %5, i64 12
  store i32 %26, ptr %27, align 4
  %28 = load ptr, ptr @ngap_extension_dissector_table, align 8
  %29 = call i32 @dissector_try_uint_with_data(ptr noundef %28, i32 noundef %26, ptr noundef %0, ptr noundef %1, ptr noundef %2, i1 noundef zeroext true, ptr noundef nonnull %5)
  %.not = icmp eq i32 %29, 0
  br i1 %.not, label %30, label %33

30:                                               ; preds = %ngap_get_private_data.exit
  %31 = load i32, ptr @hf_ngap_extensionValue_data, align 4
  %32 = call ptr @proto_tree_add_item(ptr noundef %2, i32 noundef %31, ptr noundef %0, i32 noundef 0, i32 noundef -1, i32 noundef 0)
  br label %33

33:                                               ; preds = %30, %ngap_get_private_data.exit
  %34 = call i32 @tvb_captured_length(ptr noundef %0)
  call void @llvm.lifetime.end.p0(i64 16, ptr nonnull %5) #12
  ret i32 %34
}